target datalayout = "e-m:e-p270:32:32-p271:32:32-p272:64:64-i64:64-i128:128-f80:128-n8:16:32:64-S128"
target triple = "x86_64-pc-linux-gnu"

; Function Attrs: mustprogress nounwind uwtable
define ptr @u_strcat_77(ptr noundef %0, ptr noundef %1) #3 {
  %3 = alloca ptr, align 8
  %4 = alloca ptr, align 8
  %5 = alloca ptr, align 8
  store ptr %0, ptr %3, align 8, !tbaa !3
  store ptr %1, ptr %4, align 8, !tbaa !3
  call void @llvm.lifetime.start.p0(i64 8, ptr %5) #7
  %6 = load ptr, ptr %3, align 8, !tbaa !3
  store ptr %6, ptr %5, align 8, !tbaa !3
  br label %7

7:                                                ; preds = %12, %2
  %8 = load ptr, ptr %3, align 8, !tbaa !3
  %9 = load i16, ptr %8, align 2, !tbaa !10
  %10 = zext i16 %9 to i32
  %11 = icmp ne i32 %10, 0
  br i1 %11, label %12, label %15

12:                                               ; preds = %7
  %13 = load ptr, ptr %3, align 8, !tbaa !3
  %14 = getelementptr inbounds nuw i16, ptr %13, i32 1
  store ptr %14, ptr %3, align 8, !tbaa !3
  br label %7, !llvm.loop !43

15:                                               ; preds = %7
  br label %16

16:                                               ; preds = %24, %15
  %17 = load ptr, ptr %4, align 8, !tbaa !3
  %18 = getelementptr inbounds nuw i16, ptr %17, i32 1
  store ptr %18, ptr %4, align 8, !tbaa !3
  %19 = load i16, ptr %17, align 2, !tbaa !10
  %20 = load ptr, ptr %3, align 8, !tbaa !3
  %21 = getelementptr inbounds nuw i16, ptr %20, i32 1
  store ptr %21, ptr %3, align 8, !tbaa !3
  store i16 %19, ptr %20, align 2, !tbaa !10
  %22 = zext i16 %19 to i32
  %23 = icmp ne i32 %22, 0
  br i1 %23, label %24, label %25

24:                                               ; preds = %16
  br label %16, !llvm.loop !44

25:                                               ; preds = %16
  %26 = load ptr, ptr %5, align 8, !tbaa !3
  call void @llvm.lifetime.end.p0(i64 8, ptr %5) #7
  ret ptr %26
}