; Function Attrs: mustprogress nofree norecurse nosync nounwind memory(argmem: readwrite) uwtable
define noundef ptr @u_strcat_77(ptr noundef returned %0, ptr noundef readonly captures(none) %1) local_unnamed_addr #5 {
  br label %3

3:                                                ; preds = %3, %2
  %.0 = phi ptr [ %0, %2 ], [ %5, %3 ]
  %4 = load i16, ptr %.0, align 2, !tbaa !3
  %.not = icmp eq i16 %4, 0
  %5 = getelementptr inbounds nuw i8, ptr %.0, i64 2
  br i1 %.not, label %.preheader, label %3, !llvm.loop !35

.preheader:                                       ; preds = %3, %.preheader
  %.06 = phi ptr [ %6, %.preheader ], [ %1, %3 ]
  %.1 = phi ptr [ %8, %.preheader ], [ %.0, %3 ]
  %6 = getelementptr inbounds nuw i8, ptr %.06, i64 2
  %7 = load i16, ptr %.06, align 2, !tbaa !3
  %8 = getelementptr inbounds nuw i8, ptr %.1, i64 2
  store i16 %7, ptr %.1, align 2, !tbaa !3
  %.not7 = icmp eq i16 %7, 0
  br i1 %.not7, label %9, label %.preheader, !llvm.loop !36

9:                                                ; preds = %.preheader
  ret ptr %0
}